target datalayout = "e-m:e-p270:32:32-p271:32:32-p272:64:64-i64:64-i128:128-f80:128-n8:16:32:64-S128"
target triple = "x86_64-pc-linux-gnu"

@.str.1 = private unnamed_addr constant [24 x i8] c"Cannot open file \22%s\22.\0A\00", align 1
@.str.16 = private unnamed_addr constant [3 x i8] c"wb\00", align 1

; Function Attrs: nounwind uwtable
define void @If_LibBoxWrite(ptr noundef %0, ptr noundef %1) #0 {
  %3 = alloca ptr, align 8
  %4 = alloca ptr, align 8
  %5 = alloca ptr, align 8
  %6 = alloca i32, align 4
  store ptr %0, ptr %3, align 8, !tbaa !3
  store ptr %1, ptr %4, align 8, !tbaa !22
  call void @llvm.lifetime.start.p0(i64 8, ptr %5) #10
  %7 = load ptr, ptr %3, align 8, !tbaa !3
  %8 = call noalias ptr @fopen(ptr noundef %7, ptr noundef @.str.16)
  store ptr %8, ptr %5, align 8, !tbaa !38
  %9 = load ptr, ptr %5, align 8, !tbaa !38
  %10 = icmp eq ptr %9, null
  br i1 %10, label %11, label %14

11:                                               ; preds = %2
  %12 = load ptr, ptr %3, align 8, !tbaa !3
  %13 = call i32 (ptr, ...) @printf(ptr noundef @.str.1, ptr noundef %12)
  store i32 1, ptr %6, align 4
  br label %19

14:                                               ; preds = %2
  %15 = load ptr, ptr %5, align 8, !tbaa !38
  %16 = load ptr, ptr %4, align 8, !tbaa !22
  call void @If_LibBoxPrint(ptr noundef %15, ptr noundef %16)
  %17 = load ptr, ptr %5, align 8, !tbaa !38
  %18 = call i32 @fclose(ptr noundef %17)
  store i32 0, ptr %6, align 4
  br label %19

19:                                               ; preds = %14, %11
  call void @llvm.lifetime.end.p0(i64 8, ptr %5) #10
  %20 = load i32, ptr %6, align 4
  switch i32 %20, label %22 [
    i32 0, label %21
    i32 1, label %21
  ]

21:                                               ; preds = %19, %19
  ret void

22:                                               ; preds = %19
  unreachable
}