; Function Attrs: nounwind uwtable
define void @If_LibBoxWrite(ptr noundef %0, ptr noundef readonly captures(none) %1) local_unnamed_addr #5 {
  %3 = tail call noalias ptr @fopen(ptr noundef %0, ptr noundef nonnull @.str.16)
  %4 = icmp eq ptr %3, null
  br i1 %4, label %5, label %7

5:                                                ; preds = %2
  %6 = tail call i32 (ptr, ...) @printf(ptr noundef nonnull dereferenceable(1) @.str.1, ptr noundef %0)
  br label %9

7:                                                ; preds = %2
  tail call void @If_LibBoxPrint(ptr noundef nonnull %3, ptr noundef %1)
  %8 = tail call i32 @fclose(ptr noundef nonnull %3)
  br label %9

9:                                                ; preds = %7, %5
  ret void
}